; Function Attrs: mustprogress nounwind uwtable
define void @_ZN3zmq7dgram_tD2Ev(ptr noundef nonnull align 8 dereferenceable(1848) %this) unnamed_addr #2 align 2 personality ptr @__gxx_personality_v0 {
entry:
  %_pipe = getelementptr inbounds i8, ptr %this, i64 1832
  %0 = load ptr, ptr %_pipe, align 8
  %tobool.not = icmp eq ptr %0, null
  br i1 %tobool.not, label %do.end, label %if.then

if.then:                                          ; preds = %entry
  %1 = load ptr, ptr @stderr, align 8
  %call = tail call i32 (ptr, ptr, ...) @fprintf(ptr noundef %1, ptr noundef nonnull @.str, ptr noundef nonnull @.str.1, ptr noundef nonnull @.str.2, i32 noundef 21) #11
  %2 = load ptr, ptr @stderr, align 8
  %call4 = tail call i32 @fflush(ptr noundef %2)
  invoke void @_ZN3zmq9zmq_abortEPKc(ptr noundef nonnull @.str.1)
          to label %do.end unwind label %terminate.lpad

do.end:                                           ; preds = %if.then, %entry
  tail call void @_ZN3zmq13socket_base_tD2Ev(ptr noundef nonnull align 8 dereferenceable(1825) %this) #12
  ret void

terminate.lpad:                                   ; preds = %if.then
  %3 = landingpad { ptr, i32 }
          catch ptr null
  %4 = extractvalue { ptr, i32 } %3, 0
  tail call void @__clang_call_terminate(ptr %4) #13
  unreachable
}